target datalayout = "e-m:e-p270:32:32-p271:32:32-p272:64:64-i64:64-i128:128-f80:128-n8:16:32:64-S128"
target triple = "x86_64-pc-linux-gnu"

; Function Attrs: nounwind uwtable
define void @Abc_InfoRandomBytes(ptr noundef %0, i32 noundef %1) #0 {
  %3 = alloca ptr, align 8
  %4 = alloca i32, align 4
  %5 = alloca i32, align 4
  %6 = alloca i32, align 4
  store ptr %0, ptr %3, align 8, !tbaa !28
  store i32 %1, ptr %4, align 4, !tbaa !3
  call void @llvm.lifetime.start.p0(i64 4, ptr %5) #7
  call void @llvm.lifetime.start.p0(i64 4, ptr %6) #7
  %7 = load i32, ptr %4, align 4, !tbaa !3
  %8 = sub nsw i32 %7, 1
  store i32 %8, ptr %5, align 4, !tbaa !3
  br label %9

9:                                                ; preds = %67, %2
  %10 = load i32, ptr %5, align 4, !tbaa !3
  %11 = icmp sge i32 %10, 0
  br i1 %11, label %12, label %70

12:                                               ; preds = %9
  %13 = call i32 @rand() #7
  store i32 %13, ptr %6, align 4, !tbaa !3
  %14 = load i32, ptr %6, align 4, !tbaa !3
  %15 = and i32 %14, 1
  %16 = icmp ne i32 %15, 0
  %17 = select i1 %16, i32 255, i32 0
  %18 = load ptr, ptr %3, align 8, !tbaa !28
  %19 = load i32, ptr %5, align 4, !tbaa !3
  %20 = sext i32 %19 to i64
  %21 = getelementptr inbounds i32, ptr %18, i64 %20
  store i32 %17, ptr %21, align 4, !tbaa !3
  %22 = load ptr, ptr %3, align 8, !tbaa !28
  %23 = load i32, ptr %5, align 4, !tbaa !3
  %24 = sext i32 %23 to i64
  %25 = getelementptr inbounds i32, ptr %22, i64 %24
  %26 = load i32, ptr %25, align 4, !tbaa !3
  %27 = shl i32 %26, 8
  %28 = load i32, ptr %6, align 4, !tbaa !3
  %29 = and i32 %28, 2
  %30 = icmp ne i32 %29, 0
  %31 = select i1 %30, i32 255, i32 0
  %32 = or i32 %27, %31
  %33 = load ptr, ptr %3, align 8, !tbaa !28
  %34 = load i32, ptr %5, align 4, !tbaa !3
  %35 = sext i32 %34 to i64
  %36 = getelementptr inbounds i32, ptr %33, i64 %35
  store i32 %32, ptr %36, align 4, !tbaa !3
  %37 = load ptr, ptr %3, align 8, !tbaa !28
  %38 = load i32, ptr %5, align 4, !tbaa !3
  %39 = sext i32 %38 to i64
  %40 = getelementptr inbounds i32, ptr %37, i64 %39
  %41 = load i32, ptr %40, align 4, !tbaa !3
  %42 = shl i32 %41, 8
  %43 = load i32, ptr %6, align 4, !tbaa !3
  %44 = and i32 %43, 4
  %45 = icmp ne i32 %44, 0
  %46 = select i1 %45, i32 255, i32 0
  %47 = or i32 %42, %46
  %48 = load ptr, ptr %3, align 8, !tbaa !28
  %49 = load i32, ptr %5, align 4, !tbaa !3
  %50 = sext i32 %49 to i64
  %51 = getelementptr inbounds i32, ptr %48, i64 %50
  store i32 %47, ptr %51, align 4, !tbaa !3
  %52 = load ptr, ptr %3, align 8, !tbaa !28
  %53 = load i32, ptr %5, align 4, !tbaa !3
  %54 = sext i32 %53 to i64
  %55 = getelementptr inbounds i32, ptr %52, i64 %54
  %56 = load i32, ptr %55, align 4, !tbaa !3
  %57 = shl i32 %56, 8
  %58 = load i32, ptr %6, align 4, !tbaa !3
  %59 = and i32 %58, 8
  %60 = icmp ne i32 %59, 0
  %61 = select i1 %60, i32 255, i32 0
  %62 = or i32 %57, %61
  %63 = load ptr, ptr %3, align 8, !tbaa !28
  %64 = load i32, ptr %5, align 4, !tbaa !3
  %65 = sext i32 %64 to i64
  %66 = getelementptr inbounds i32, ptr %63, i64 %65
  store i32 %62, ptr %66, align 4, !tbaa !3
  br label %67

67:                                               ; preds = %12
  %68 = load i32, ptr %5, align 4, !tbaa !3
  %69 = add nsw i32 %68, -1
  store i32 %69, ptr %5, align 4, !tbaa !3
  br label %9, !llvm.loop !64

70:                                               ; preds = %9
  call void @llvm.lifetime.end.p0(i64 4, ptr %6) #7
  call void @llvm.lifetime.end.p0(i64 4, ptr %5) #7
  ret void
}