; Function Attrs: nounwind uwtable
define void @Abc_InfoRandomBytes(ptr noundef writeonly captures(none) %0, i32 noundef %1) local_unnamed_addr #4 {
  %3 = icmp sgt i32 %1, 0
  br i1 %3, label %.lr.ph.preheader, label %._crit_edge

.lr.ph.preheader:                                 ; preds = %2
  %4 = zext nneg i32 %1 to i64
  br label %.lr.ph

.lr.ph:                                           ; preds = %.lr.ph.preheader, %.lr.ph
  %indvars.iv = phi i64 [ %4, %.lr.ph.preheader ], [ %indvars.iv.next, %.lr.ph ]
  %indvars.iv.next = add nsw i64 %indvars.iv, -1
  %5 = tail call i32 @rand() #15
  %6 = and i32 %5, 1
  %.not = icmp eq i32 %6, 0
  %7 = select i1 %.not, i32 0, i32 -16777216
  %8 = getelementptr inbounds nuw i32, ptr %0, i64 %indvars.iv.next
  %9 = and i32 %5, 2
  %.not20 = icmp eq i32 %9, 0
  %10 = select i1 %.not20, i32 0, i32 16711680
  %11 = or disjoint i32 %7, %10
  %12 = and i32 %5, 4
  %.not21 = icmp eq i32 %12, 0
  %13 = select i1 %.not21, i32 0, i32 65280
  %14 = or disjoint i32 %11, %13
  %15 = and i32 %5, 8
  %.not22 = icmp eq i32 %15, 0
  %16 = select i1 %.not22, i32 0, i32 255
  %17 = or disjoint i32 %14, %16
  store i32 %17, ptr %8, align 4, !tbaa !59
  %18 = icmp samesign ugt i64 %indvars.iv, 1
  br i1 %18, label %.lr.ph, label %._crit_edge, !llvm.loop !60

._crit_edge:                                      ; preds = %.lr.ph, %2
  ret void
}